; Function Attrs: nounwind uwtable
define ptr @l_Lean_PrettyPrinter_Parenthesizer_maybeParenthesize___lambda__10___boxed(ptr noundef readonly captures(none) %0) local_unnamed_addr #0 {
  %2 = load ptr, ptr %0, align 8, !tbaa !4
  %3 = getelementptr inbounds nuw i8, ptr %0, i64 8
  %4 = load ptr, ptr %3, align 8, !tbaa !4
  %5 = getelementptr inbounds nuw i8, ptr %0, i64 16
  %6 = load ptr, ptr %5, align 8, !tbaa !4
  %7 = getelementptr inbounds nuw i8, ptr %0, i64 24
  %8 = load ptr, ptr %7, align 8, !tbaa !4
  %9 = getelementptr inbounds nuw i8, ptr %0, i64 32
  %10 = load ptr, ptr %9, align 8, !tbaa !4
  %11 = getelementptr inbounds nuw i8, ptr %0, i64 40
  %12 = load ptr, ptr %11, align 8, !tbaa !4
  %13 = getelementptr inbounds nuw i8, ptr %0, i64 48
  %14 = load ptr, ptr %13, align 8, !tbaa !4
  %15 = getelementptr inbounds nuw i8, ptr %0, i64 56
  %16 = load ptr, ptr %15, align 8, !tbaa !4
  %17 = getelementptr inbounds nuw i8, ptr %0, i64 64
  %18 = load ptr, ptr %17, align 8, !tbaa !4
  %19 = getelementptr inbounds nuw i8, ptr %0, i64 72
  %20 = load ptr, ptr %19, align 8, !tbaa !4
  %21 = getelementptr inbounds nuw i8, ptr %0, i64 80
  %22 = load ptr, ptr %21, align 8, !tbaa !4
  %23 = getelementptr inbounds nuw i8, ptr %0, i64 88
  %24 = load ptr, ptr %23, align 8, !tbaa !4
  %25 = getelementptr inbounds nuw i8, ptr %0, i64 96
  %26 = load ptr, ptr %25, align 8, !tbaa !4
  %27 = getelementptr inbounds nuw i8, ptr %0, i64 104
  %28 = load ptr, ptr %27, align 8, !tbaa !4
  %29 = getelementptr inbounds nuw i8, ptr %0, i64 112
  %30 = load ptr, ptr %29, align 8, !tbaa !4
  %31 = getelementptr inbounds nuw i8, ptr %0, i64 120
  %32 = load ptr, ptr %31, align 8, !tbaa !4
  %33 = getelementptr inbounds nuw i8, ptr %0, i64 128
  %34 = load ptr, ptr %33, align 8, !tbaa !4
  %35 = getelementptr inbounds nuw i8, ptr %0, i64 136
  %36 = load ptr, ptr %35, align 8, !tbaa !4
  %37 = getelementptr inbounds nuw i8, ptr %0, i64 144
  %38 = load ptr, ptr %37, align 8, !tbaa !4
  %39 = getelementptr inbounds nuw i8, ptr %0, i64 152
  %40 = load ptr, ptr %39, align 8, !tbaa !4
  %41 = getelementptr inbounds nuw i8, ptr %0, i64 160
  %42 = load ptr, ptr %41, align 8, !tbaa !4
  %43 = getelementptr inbounds nuw i8, ptr %0, i64 168
  %44 = load ptr, ptr %43, align 8, !tbaa !4
  %45 = ptrtoint ptr %14 to i64
  %46 = lshr i64 %45, 1
  %47 = trunc i64 %46 to i8
  %48 = and i64 %45, 1
  %.not = icmp eq i64 %48, 0
  br i1 %.not, label %49, label %lean_dec.exit54

49:                                               ; preds = %1
  %50 = load i32, ptr %14, align 4, !tbaa !8
  %51 = icmp sgt i32 %50, 1
  br i1 %51, label %52, label %54, !prof !11

52:                                               ; preds = %49
  %53 = add nsw i32 %50, -1
  store i32 %53, ptr %14, align 4, !tbaa !8
  br label %lean_dec.exit54

54:                                               ; preds = %49
  %.not.i = icmp eq i32 %50, 0
  br i1 %.not.i, label %lean_dec.exit54, label %55

55:                                               ; preds = %54
  tail call void @lean_dec_ref_cold(ptr noundef nonnull %14) #6
  br label %lean_dec.exit54

lean_dec.exit54:                                  ; preds = %55, %54, %52, %1
  %56 = ptrtoint ptr %26 to i64
  %57 = lshr i64 %56, 1
  %58 = trunc i64 %57 to i8
  %59 = and i64 %56, 1
  %.not63 = icmp eq i64 %59, 0
  br i1 %.not63, label %60, label %lean_dec.exit53

60:                                               ; preds = %lean_dec.exit54
  %61 = load i32, ptr %26, align 4, !tbaa !8
  %62 = icmp sgt i32 %61, 1
  br i1 %62, label %63, label %65, !prof !11

63:                                               ; preds = %60
  %64 = add nsw i32 %61, -1
  store i32 %64, ptr %26, align 4, !tbaa !8
  br label %lean_dec.exit53

65:                                               ; preds = %60
  %.not.i55 = icmp eq i32 %61, 0
  br i1 %.not.i55, label %lean_dec.exit53, label %66

66:                                               ; preds = %65
  tail call void @lean_dec_ref_cold(ptr noundef nonnull %26) #6
  br label %lean_dec.exit53

lean_dec.exit53:                                  ; preds = %66, %65, %63, %lean_dec.exit54
  %67 = tail call ptr @l_Lean_PrettyPrinter_Parenthesizer_maybeParenthesize___lambda__10(ptr noundef %2, ptr noundef %4, ptr noundef %6, ptr noundef %8, ptr noundef %10, ptr noundef %12, i8 noundef zeroext %47, ptr noundef %16, ptr noundef %18, ptr noundef %20, ptr noundef %22, ptr noundef %24, i8 noundef zeroext %58, ptr noundef %28, ptr noundef %30, ptr noundef %32, ptr poison, ptr noundef %36, ptr noundef %38, ptr noundef %40, ptr noundef %42, ptr noundef %44)
  %68 = ptrtoint ptr %34 to i64
  %69 = and i64 %68, 1
  %.not64 = icmp eq i64 %69, 0
  br i1 %.not64, label %70, label %lean_dec.exit52

70:                                               ; preds = %lean_dec.exit53
  %71 = load i32, ptr %34, align 4, !tbaa !8
  %72 = icmp sgt i32 %71, 1
  br i1 %72, label %73, label %75, !prof !11

73:                                               ; preds = %70
  %74 = add nsw i32 %71, -1
  store i32 %74, ptr %34, align 4, !tbaa !8
  br label %lean_dec.exit52

75:                                               ; preds = %70
  %.not.i57 = icmp eq i32 %71, 0
  br i1 %.not.i57, label %lean_dec.exit52, label %76

76:                                               ; preds = %75
  tail call void @lean_dec_ref_cold(ptr noundef nonnull %34) #6
  br label %lean_dec.exit52

lean_dec.exit52:                                  ; preds = %76, %75, %73, %lean_dec.exit53
  %77 = ptrtoint ptr %32 to i64
  %78 = and i64 %77, 1
  %.not65 = icmp eq i64 %78, 0
  br i1 %.not65, label %79, label %lean_dec.exit51

79:                                               ; preds = %lean_dec.exit52
  %80 = load i32, ptr %32, align 4, !tbaa !8
  %81 = icmp sgt i32 %80, 1
  br i1 %81, label %82, label %84, !prof !11

82:                                               ; preds = %79
  %83 = add nsw i32 %80, -1
  store i32 %83, ptr %32, align 4, !tbaa !8
  br label %lean_dec.exit51

84:                                               ; preds = %79
  %.not.i59 = icmp eq i32 %80, 0
  br i1 %.not.i59, label %lean_dec.exit51, label %85

85:                                               ; preds = %84
  tail call void @lean_dec_ref_cold(ptr noundef nonnull %32) #6
  br label %lean_dec.exit51

lean_dec.exit51:                                  ; preds = %85, %84, %82, %lean_dec.exit52
  %86 = ptrtoint ptr %24 to i64
  %87 = and i64 %86, 1
  %.not66 = icmp eq i64 %87, 0
  br i1 %.not66, label %88, label %lean_dec.exit

88:                                               ; preds = %lean_dec.exit51
  %89 = load i32, ptr %24, align 4, !tbaa !8
  %90 = icmp sgt i32 %89, 1
  br i1 %90, label %91, label %93, !prof !11

91:                                               ; preds = %88
  %92 = add nsw i32 %89, -1
  store i32 %92, ptr %24, align 4, !tbaa !8
  br label %lean_dec.exit

93:                                               ; preds = %88
  %.not.i61 = icmp eq i32 %89, 0
  br i1 %.not.i61, label %lean_dec.exit, label %94

94:                                               ; preds = %93
  tail call void @lean_dec_ref_cold(ptr noundef nonnull %24) #6
  br label %lean_dec.exit

lean_dec.exit:                                    ; preds = %94, %93, %91, %lean_dec.exit51
  ret ptr %67
}